; Function Attrs: mustprogress nofree norecurse nosync nounwind willreturn memory(argmem: write) uwtable
define dso_local noundef nonnull align 8 dereferenceable(96) ptr @_ZN23cmUVProcessChainBuilder11SetNoStreamENS_6StreamE(ptr noundef nonnull returned writeonly align 8 dereferenceable(96) %0, i32 noundef %1) local_unnamed_addr #3 align 2 {
  %switch = icmp ult i32 %1, 3
  br i1 %switch, label %3, label %6

3:                                                ; preds = %2
  %4 = zext nneg i32 %1 to i64
  %5 = getelementptr inbounds nuw [3 x %"struct.cmUVProcessChainBuilder::StdioConfiguration"], ptr %0, i64 0, i64 %4
  store i32 0, ptr %5, align 8
  br label %6

6:                                                ; preds = %2, %3
  ret ptr %0
}